target datalayout = "e-m:e-p270:32:32-p271:32:32-p272:64:64-i64:64-i128:128-f80:128-n8:16:32:64-S128"
target triple = "x86_64-pc-linux-gnu"

@plugin_type = external constant [0 x i8], align 1
@.str.60 = private unnamed_addr constant [39 x i8] c"%s: %s: mpi/pmi2: in _handle_ring_resp\00", align 1
@__func__._handle_ring_resp = private unnamed_addr constant [18 x i8] c"_handle_ring_resp\00", align 1
@.str.61 = private unnamed_addr constant [40 x i8] c"%s: %s: mpi/pmi2: out _handle_ring_resp\00", align 1
@.str.62 = private unnamed_addr constant [44 x i8] c"mpi/pmi2: failed to unpack ring out message\00", align 1

; Function Attrs: nounwind uwtable
define internal i32 @_handle_ring_resp(i32 noundef %0, ptr noundef %1) #0 {
  %3 = alloca i32, align 4
  %4 = alloca i32, align 4
  %5 = alloca ptr, align 8
  %6 = alloca i32, align 4
  %7 = alloca ptr, align 8
  %8 = alloca ptr, align 8
  %9 = alloca i32, align 4
  %10 = alloca i32, align 4
  %11 = alloca i32, align 4
  %12 = alloca i32, align 4
  store i32 %0, ptr %4, align 4
  store ptr %1, ptr %5, align 8
  call void @llvm.lifetime.start.p0(i64 4, ptr %6) #6
  call void @llvm.lifetime.start.p0(i64 8, ptr %7) #6
  store ptr null, ptr %7, align 8
  call void @llvm.lifetime.start.p0(i64 8, ptr %8) #6
  store ptr null, ptr %8, align 8
  call void @llvm.lifetime.start.p0(i64 4, ptr %9) #6
  store i32 0, ptr %9, align 4
  br label %13

13:                                               ; preds = %2
  br label %14

14:                                               ; preds = %13
  %15 = call i32 @slurm_get_log_level()
  %16 = icmp sge i32 %15, 7
  br i1 %16, label %17, label %18

17:                                               ; preds = %14
  call void (i32, ptr, ...) @slurm_log_var(i32 noundef 7, ptr noundef @.str.60, ptr noundef @plugin_type, ptr noundef @__func__._handle_ring_resp)
  br label %18

18:                                               ; preds = %17, %14
  br label %19

19:                                               ; preds = %18
  br label %20

20:                                               ; preds = %19
  br label %21

21:                                               ; preds = %20
  br label %22

22:                                               ; preds = %21
  br label %23

23:                                               ; preds = %22
  %24 = load ptr, ptr %5, align 8
  %25 = call i32 @slurm_unpack32(ptr noundef %6, ptr noundef %24)
  %26 = icmp ne i32 %25, 0
  br i1 %26, label %27, label %28

27:                                               ; preds = %23
  br label %69

28:                                               ; preds = %23
  br label %29

29:                                               ; preds = %28
  br label %30

30:                                               ; preds = %29
  br label %31

31:                                               ; preds = %30
  call void @llvm.lifetime.start.p0(i64 4, ptr %10) #6
  %32 = load ptr, ptr %5, align 8
  %33 = call i32 @slurm_unpackstr_xmalloc_chooser(ptr noundef %7, ptr noundef %10, ptr noundef %32)
  %34 = icmp ne i32 %33, 0
  br i1 %34, label %35, label %36

35:                                               ; preds = %31
  store i32 8, ptr %11, align 4
  br label %37

36:                                               ; preds = %31
  store i32 0, ptr %11, align 4
  br label %37

37:                                               ; preds = %35, %36
  call void @llvm.lifetime.end.p0(i64 4, ptr %10) #6
  %38 = load i32, ptr %11, align 4
  switch i32 %38, label %71 [
    i32 0, label %39
    i32 8, label %69
  ]

39:                                               ; preds = %37
  br label %40

40:                                               ; preds = %39
  br label %41

41:                                               ; preds = %40
  br label %42

42:                                               ; preds = %41
  call void @llvm.lifetime.start.p0(i64 4, ptr %12) #6
  %43 = load ptr, ptr %5, align 8
  %44 = call i32 @slurm_unpackstr_xmalloc_chooser(ptr noundef %8, ptr noundef %12, ptr noundef %43)
  %45 = icmp ne i32 %44, 0
  br i1 %45, label %46, label %47

46:                                               ; preds = %42
  store i32 8, ptr %11, align 4
  br label %48

47:                                               ; preds = %42
  store i32 0, ptr %11, align 4
  br label %48

48:                                               ; preds = %46, %47
  call void @llvm.lifetime.end.p0(i64 4, ptr %12) #6
  %49 = load i32, ptr %11, align 4
  switch i32 %49, label %71 [
    i32 0, label %50
    i32 8, label %69
  ]

50:                                               ; preds = %48
  br label %51

51:                                               ; preds = %50
  br label %52

52:                                               ; preds = %51
  %53 = load i32, ptr %6, align 4
  %54 = load ptr, ptr %7, align 8
  %55 = load ptr, ptr %8, align 8
  %56 = call i32 @pmix_ring_out(i32 noundef %53, ptr noundef %54, ptr noundef %55)
  store i32 %56, ptr %9, align 4
  br label %57

57:                                               ; preds = %69, %52
  call void @slurm_xfree(ptr noundef %7)
  call void @slurm_xfree(ptr noundef %8)
  br label %58

58:                                               ; preds = %57
  br label %59

59:                                               ; preds = %58
  %60 = call i32 @slurm_get_log_level()
  %61 = icmp sge i32 %60, 7
  br i1 %61, label %62, label %63

62:                                               ; preds = %59
  call void (i32, ptr, ...) @slurm_log_var(i32 noundef 7, ptr noundef @.str.61, ptr noundef @plugin_type, ptr noundef @__func__._handle_ring_resp)
  br label %63

63:                                               ; preds = %62, %59
  br label %64

64:                                               ; preds = %63
  br label %65

65:                                               ; preds = %64
  br label %66

66:                                               ; preds = %65
  br label %67

67:                                               ; preds = %66
  %68 = load i32, ptr %9, align 4
  store i32 %68, ptr %3, align 4
  store i32 1, ptr %11, align 4
  br label %71

69:                                               ; preds = %48, %37, %27
  %70 = call i32 (ptr, ...) @slurm_error(ptr noundef @.str.62)
  store i32 -1, ptr %9, align 4
  br label %57

71:                                               ; preds = %67, %48, %37
  call void @llvm.lifetime.end.p0(i64 4, ptr %9) #6
  call void @llvm.lifetime.end.p0(i64 8, ptr %8) #6
  call void @llvm.lifetime.end.p0(i64 8, ptr %7) #6
  call void @llvm.lifetime.end.p0(i64 4, ptr %6) #6
  %72 = load i32, ptr %3, align 4
  ret i32 %72
}