; Function Attrs: nounwind uwtable
define internal i32 @_handle_ring_resp(i32 %0, ptr noundef %1) #0 {
  %3 = alloca i32, align 4
  %4 = alloca ptr, align 8
  %5 = alloca ptr, align 8
  %6 = alloca i32, align 4
  %7 = alloca i32, align 4
  call void @llvm.lifetime.start.p0(i64 4, ptr nonnull %3) #7
  call void @llvm.lifetime.start.p0(i64 8, ptr nonnull %4) #7
  store ptr null, ptr %4, align 8
  call void @llvm.lifetime.start.p0(i64 8, ptr nonnull %5) #7
  store ptr null, ptr %5, align 8
  %8 = tail call i32 @slurm_get_log_level() #7
  %9 = icmp sgt i32 %8, 6
  br i1 %9, label %10, label %11

10:                                               ; preds = %2
  tail call void (i32, ptr, ...) @slurm_log_var(i32 noundef 7, ptr noundef nonnull @.str.60, ptr noundef nonnull @plugin_type, ptr noundef nonnull @__func__._handle_ring_resp) #7
  br label %11

11:                                               ; preds = %2, %10
  %12 = call i32 @slurm_unpack32(ptr noundef nonnull %3, ptr noundef %1) #7
  %.not = icmp eq i32 %12, 0
  br i1 %.not, label %13, label %26

13:                                               ; preds = %11
  call void @llvm.lifetime.start.p0(i64 4, ptr nonnull %6) #7
  %14 = call i32 @slurm_unpackstr_xmalloc_chooser(ptr noundef nonnull %4, ptr noundef nonnull %6, ptr noundef %1) #7
  %.not8 = icmp eq i32 %14, 0
  call void @llvm.lifetime.end.p0(i64 4, ptr nonnull %6) #7
  br i1 %.not8, label %15, label %26

15:                                               ; preds = %13
  call void @llvm.lifetime.start.p0(i64 4, ptr nonnull %7) #7
  %16 = call i32 @slurm_unpackstr_xmalloc_chooser(ptr noundef nonnull %5, ptr noundef nonnull %7, ptr noundef %1) #7
  %.not9 = icmp eq i32 %16, 0
  call void @llvm.lifetime.end.p0(i64 4, ptr nonnull %7) #7
  br i1 %.not9, label %17, label %26

17:                                               ; preds = %15
  %18 = load i32, ptr %3, align 4
  %19 = load ptr, ptr %4, align 8
  %20 = load ptr, ptr %5, align 8
  %21 = call i32 @pmix_ring_out(i32 noundef %18, ptr noundef %19, ptr noundef %20) #7
  br label %22

22:                                               ; preds = %26, %17
  %.06 = phi i32 [ -1, %26 ], [ %21, %17 ]
  call void @slurm_xfree(ptr noundef nonnull %4) #7
  call void @slurm_xfree(ptr noundef nonnull %5) #7
  %23 = call i32 @slurm_get_log_level() #7
  %24 = icmp sgt i32 %23, 6
  br i1 %24, label %25, label %28

25:                                               ; preds = %22
  call void (i32, ptr, ...) @slurm_log_var(i32 noundef 7, ptr noundef nonnull @.str.61, ptr noundef nonnull @plugin_type, ptr noundef nonnull @__func__._handle_ring_resp) #7
  br label %28

26:                                               ; preds = %15, %13, %11
  %27 = call i32 (ptr, ...) @slurm_error(ptr noundef nonnull @.str.62) #7
  br label %22

28:                                               ; preds = %22, %25
  call void @llvm.lifetime.end.p0(i64 8, ptr nonnull %5) #7
  call void @llvm.lifetime.end.p0(i64 8, ptr nonnull %4) #7
  call void @llvm.lifetime.end.p0(i64 4, ptr nonnull %3) #7
  ret i32 %.06
}